ARM GAS  C:\Users\Marcin\AppData\Local\Temp\ccPQLjhi.s 			page 1


   1              		.cpu cortex-m3
   2              		.eabi_attribute 20, 1
   3              		.eabi_attribute 21, 1
   4              		.eabi_attribute 23, 3
   5              		.eabi_attribute 24, 1
   6              		.eabi_attribute 25, 1
   7              		.eabi_attribute 26, 1
   8              		.eabi_attribute 30, 1
   9              		.eabi_attribute 34, 1
  10              		.eabi_attribute 18, 4
  11              		.file	"tim.c"
  12              		.text
  13              	.Ltext0:
  14              		.cfi_sections	.debug_frame
  15              		.section	.rodata.MX_TIM1_Init.str1.4,"aMS",%progbits,1
  16              		.align	2
  17              	.LC0:
  18 0000 5372632F 		.ascii	"Src/tim.c\000"
  18      74696D2E 
  18      6300
  19              		.section	.text.MX_TIM1_Init,"ax",%progbits
  20              		.align	1
  21              		.global	MX_TIM1_Init
  22              		.arch armv7-m
  23              		.syntax unified
  24              		.thumb
  25              		.thumb_func
  26              		.fpu softvfp
  28              	MX_TIM1_Init:
  29              	.LFB66:
  30              		.file 1 "Src/tim.c"
   1:Src/tim.c     **** /**
   2:Src/tim.c     ****   ******************************************************************************
   3:Src/tim.c     ****   * File Name          : TIM.c
   4:Src/tim.c     ****   * Description        : This file provides code for the configuration
   5:Src/tim.c     ****   *                      of the TIM instances.
   6:Src/tim.c     ****   ******************************************************************************
   7:Src/tim.c     ****   ** This notice applies to any and all portions of this file
   8:Src/tim.c     ****   * that are not between comment pairs USER CODE BEGIN and
   9:Src/tim.c     ****   * USER CODE END. Other portions of this file, whether 
  10:Src/tim.c     ****   * inserted by the user or by software development tools
  11:Src/tim.c     ****   * are owned by their respective copyright owners.
  12:Src/tim.c     ****   *
  13:Src/tim.c     ****   * COPYRIGHT(c) 2020 STMicroelectronics
  14:Src/tim.c     ****   *
  15:Src/tim.c     ****   * Redistribution and use in source and binary forms, with or without modification,
  16:Src/tim.c     ****   * are permitted provided that the following conditions are met:
  17:Src/tim.c     ****   *   1. Redistributions of source code must retain the above copyright notice,
  18:Src/tim.c     ****   *      this list of conditions and the following disclaimer.
  19:Src/tim.c     ****   *   2. Redistributions in binary form must reproduce the above copyright notice,
  20:Src/tim.c     ****   *      this list of conditions and the following disclaimer in the documentation
  21:Src/tim.c     ****   *      and/or other materials provided with the distribution.
  22:Src/tim.c     ****   *   3. Neither the name of STMicroelectronics nor the names of its contributors
  23:Src/tim.c     ****   *      may be used to endorse or promote products derived from this software
  24:Src/tim.c     ****   *      without specific prior written permission.
  25:Src/tim.c     ****   *
  26:Src/tim.c     ****   * THIS SOFTWARE IS PROVIDED BY THE COPYRIGHT HOLDERS AND CONTRIBUTORS "AS IS"
ARM GAS  C:\Users\Marcin\AppData\Local\Temp\ccPQLjhi.s 			page 2


  27:Src/tim.c     ****   * AND ANY EXPRESS OR IMPLIED WARRANTIES, INCLUDING, BUT NOT LIMITED TO, THE
  28:Src/tim.c     ****   * IMPLIED WARRANTIES OF MERCHANTABILITY AND FITNESS FOR A PARTICULAR PURPOSE ARE
  29:Src/tim.c     ****   * DISCLAIMED. IN NO EVENT SHALL THE COPYRIGHT HOLDER OR CONTRIBUTORS BE LIABLE
  30:Src/tim.c     ****   * FOR ANY DIRECT, INDIRECT, INCIDENTAL, SPECIAL, EXEMPLARY, OR CONSEQUENTIAL
  31:Src/tim.c     ****   * DAMAGES (INCLUDING, BUT NOT LIMITED TO, PROCUREMENT OF SUBSTITUTE GOODS OR
  32:Src/tim.c     ****   * SERVICES; LOSS OF USE, DATA, OR PROFITS; OR BUSINESS INTERRUPTION) HOWEVER
  33:Src/tim.c     ****   * CAUSED AND ON ANY THEORY OF LIABILITY, WHETHER IN CONTRACT, STRICT LIABILITY,
  34:Src/tim.c     ****   * OR TORT (INCLUDING NEGLIGENCE OR OTHERWISE) ARISING IN ANY WAY OUT OF THE USE
  35:Src/tim.c     ****   * OF THIS SOFTWARE, EVEN IF ADVISED OF THE POSSIBILITY OF SUCH DAMAGE.
  36:Src/tim.c     ****   *
  37:Src/tim.c     ****   ******************************************************************************
  38:Src/tim.c     ****   */
  39:Src/tim.c     **** 
  40:Src/tim.c     **** /* Includes ------------------------------------------------------------------*/
  41:Src/tim.c     **** #include "tim.h"
  42:Src/tim.c     **** 
  43:Src/tim.c     **** /* USER CODE BEGIN 0 */
  44:Src/tim.c     **** 
  45:Src/tim.c     **** /* USER CODE END 0 */
  46:Src/tim.c     **** 
  47:Src/tim.c     **** TIM_HandleTypeDef htim1;
  48:Src/tim.c     **** 
  49:Src/tim.c     **** /* TIM1 init function */
  50:Src/tim.c     **** void MX_TIM1_Init(void)
  51:Src/tim.c     **** {
  31              		.loc 1 51 1 view -0
  32              		.cfi_startproc
  33              		@ args = 0, pretend = 0, frame = 24
  34              		@ frame_needed = 0, uses_anonymous_args = 0
  35 0000 00B5     		push	{lr}
  36              	.LCFI0:
  37              		.cfi_def_cfa_offset 4
  38              		.cfi_offset 14, -4
  39 0002 87B0     		sub	sp, sp, #28
  40              	.LCFI1:
  41              		.cfi_def_cfa_offset 32
  52:Src/tim.c     ****   TIM_ClockConfigTypeDef sClockSourceConfig;
  42              		.loc 1 52 3 view .LVU1
  53:Src/tim.c     ****   TIM_MasterConfigTypeDef sMasterConfig;
  43              		.loc 1 53 3 view .LVU2
  54:Src/tim.c     **** 
  55:Src/tim.c     ****   htim1.Instance = TIM1;
  44              		.loc 1 55 3 view .LVU3
  45              		.loc 1 55 18 is_stmt 0 view .LVU4
  46 0004 1948     		ldr	r0, .L9
  47 0006 1A4B     		ldr	r3, .L9+4
  48 0008 0360     		str	r3, [r0]
  56:Src/tim.c     ****   htim1.Init.Prescaler = 8000;
  49              		.loc 1 56 3 is_stmt 1 view .LVU5
  50              		.loc 1 56 24 is_stmt 0 view .LVU6
  51 000a 4FF4FA53 		mov	r3, #8000
  52 000e 4360     		str	r3, [r0, #4]
  57:Src/tim.c     ****   htim1.Init.CounterMode = TIM_COUNTERMODE_UP;
  53              		.loc 1 57 3 is_stmt 1 view .LVU7
  54              		.loc 1 57 26 is_stmt 0 view .LVU8
  55 0010 0023     		movs	r3, #0
  56 0012 8360     		str	r3, [r0, #8]
ARM GAS  C:\Users\Marcin\AppData\Local\Temp\ccPQLjhi.s 			page 3


  58:Src/tim.c     ****   htim1.Init.Period = 999;
  57              		.loc 1 58 3 is_stmt 1 view .LVU9
  58              		.loc 1 58 21 is_stmt 0 view .LVU10
  59 0014 40F2E732 		movw	r2, #999
  60 0018 C260     		str	r2, [r0, #12]
  59:Src/tim.c     ****   htim1.Init.ClockDivision = TIM_CLOCKDIVISION_DIV1;
  61              		.loc 1 59 3 is_stmt 1 view .LVU11
  62              		.loc 1 59 28 is_stmt 0 view .LVU12
  63 001a 0361     		str	r3, [r0, #16]
  60:Src/tim.c     ****   htim1.Init.RepetitionCounter = 0;
  64              		.loc 1 60 3 is_stmt 1 view .LVU13
  65              		.loc 1 60 32 is_stmt 0 view .LVU14
  66 001c 4361     		str	r3, [r0, #20]
  61:Src/tim.c     ****   htim1.Init.AutoReloadPreload = TIM_AUTORELOAD_PRELOAD_DISABLE;
  67              		.loc 1 61 3 is_stmt 1 view .LVU15
  68              		.loc 1 61 32 is_stmt 0 view .LVU16
  69 001e 8361     		str	r3, [r0, #24]
  62:Src/tim.c     ****   if (HAL_TIM_Base_Init(&htim1) != HAL_OK)
  70              		.loc 1 62 3 is_stmt 1 view .LVU17
  71              		.loc 1 62 7 is_stmt 0 view .LVU18
  72 0020 FFF7FEFF 		bl	HAL_TIM_Base_Init
  73              	.LVL0:
  74              		.loc 1 62 6 view .LVU19
  75 0024 90B9     		cbnz	r0, .L6
  76              	.L2:
  63:Src/tim.c     ****   {
  64:Src/tim.c     ****     _Error_Handler(__FILE__, __LINE__);
  65:Src/tim.c     ****   }
  66:Src/tim.c     **** 
  67:Src/tim.c     ****   sClockSourceConfig.ClockSource = TIM_CLOCKSOURCE_INTERNAL;
  77              		.loc 1 67 3 is_stmt 1 view .LVU20
  78              		.loc 1 67 34 is_stmt 0 view .LVU21
  79 0026 4FF48053 		mov	r3, #4096
  80 002a 0293     		str	r3, [sp, #8]
  68:Src/tim.c     ****   if (HAL_TIM_ConfigClockSource(&htim1, &sClockSourceConfig) != HAL_OK)
  81              		.loc 1 68 3 is_stmt 1 view .LVU22
  82              		.loc 1 68 7 is_stmt 0 view .LVU23
  83 002c 02A9     		add	r1, sp, #8
  84 002e 0F48     		ldr	r0, .L9
  85 0030 FFF7FEFF 		bl	HAL_TIM_ConfigClockSource
  86              	.LVL1:
  87              		.loc 1 68 6 view .LVU24
  88 0034 78B9     		cbnz	r0, .L7
  89              	.L3:
  69:Src/tim.c     ****   {
  70:Src/tim.c     ****     _Error_Handler(__FILE__, __LINE__);
  71:Src/tim.c     ****   }
  72:Src/tim.c     **** 
  73:Src/tim.c     ****   sMasterConfig.MasterOutputTrigger = TIM_TRGO_RESET;
  90              		.loc 1 73 3 is_stmt 1 view .LVU25
  91              		.loc 1 73 37 is_stmt 0 view .LVU26
  92 0036 0023     		movs	r3, #0
  93 0038 0093     		str	r3, [sp]
  74:Src/tim.c     ****   sMasterConfig.MasterSlaveMode = TIM_MASTERSLAVEMODE_DISABLE;
  94              		.loc 1 74 3 is_stmt 1 view .LVU27
  95              		.loc 1 74 33 is_stmt 0 view .LVU28
  96 003a 0193     		str	r3, [sp, #4]
ARM GAS  C:\Users\Marcin\AppData\Local\Temp\ccPQLjhi.s 			page 4


  75:Src/tim.c     ****   if (HAL_TIMEx_MasterConfigSynchronization(&htim1, &sMasterConfig) != HAL_OK)
  97              		.loc 1 75 3 is_stmt 1 view .LVU29
  98              		.loc 1 75 7 is_stmt 0 view .LVU30
  99 003c 6946     		mov	r1, sp
 100 003e 0B48     		ldr	r0, .L9
 101 0040 FFF7FEFF 		bl	HAL_TIMEx_MasterConfigSynchronization
 102              	.LVL2:
 103              		.loc 1 75 6 view .LVU31
 104 0044 60B9     		cbnz	r0, .L8
 105              	.L1:
  76:Src/tim.c     ****   {
  77:Src/tim.c     ****     _Error_Handler(__FILE__, __LINE__);
  78:Src/tim.c     ****   }
  79:Src/tim.c     **** 
  80:Src/tim.c     **** }
 106              		.loc 1 80 1 view .LVU32
 107 0046 07B0     		add	sp, sp, #28
 108              	.LCFI2:
 109              		.cfi_remember_state
 110              		.cfi_def_cfa_offset 4
 111              		@ sp needed
 112 0048 5DF804FB 		ldr	pc, [sp], #4
 113              	.L6:
 114              	.LCFI3:
 115              		.cfi_restore_state
  64:Src/tim.c     ****   }
 116              		.loc 1 64 5 is_stmt 1 view .LVU33
 117 004c 4021     		movs	r1, #64
 118 004e 0948     		ldr	r0, .L9+8
 119 0050 FFF7FEFF 		bl	_Error_Handler
 120              	.LVL3:
 121 0054 E7E7     		b	.L2
 122              	.L7:
  70:Src/tim.c     ****   }
 123              		.loc 1 70 5 view .LVU34
 124 0056 4621     		movs	r1, #70
 125 0058 0648     		ldr	r0, .L9+8
 126 005a FFF7FEFF 		bl	_Error_Handler
 127              	.LVL4:
 128 005e EAE7     		b	.L3
 129              	.L8:
  77:Src/tim.c     ****   }
 130              		.loc 1 77 5 view .LVU35
 131 0060 4D21     		movs	r1, #77
 132 0062 0448     		ldr	r0, .L9+8
 133 0064 FFF7FEFF 		bl	_Error_Handler
 134              	.LVL5:
 135              		.loc 1 80 1 is_stmt 0 view .LVU36
 136 0068 EDE7     		b	.L1
 137              	.L10:
 138 006a 00BF     		.align	2
 139              	.L9:
 140 006c 00000000 		.word	htim1
 141 0070 002C0140 		.word	1073818624
 142 0074 00000000 		.word	.LC0
 143              		.cfi_endproc
 144              	.LFE66:
ARM GAS  C:\Users\Marcin\AppData\Local\Temp\ccPQLjhi.s 			page 5


 146              		.section	.text.HAL_TIM_Base_MspInit,"ax",%progbits
 147              		.align	1
 148              		.global	HAL_TIM_Base_MspInit
 149              		.syntax unified
 150              		.thumb
 151              		.thumb_func
 152              		.fpu softvfp
 154              	HAL_TIM_Base_MspInit:
 155              	.LVL6:
 156              	.LFB67:
  81:Src/tim.c     **** 
  82:Src/tim.c     **** void HAL_TIM_Base_MspInit(TIM_HandleTypeDef* tim_baseHandle)
  83:Src/tim.c     **** {
 157              		.loc 1 83 1 is_stmt 1 view -0
 158              		.cfi_startproc
 159              		@ args = 0, pretend = 0, frame = 8
 160              		@ frame_needed = 0, uses_anonymous_args = 0
  84:Src/tim.c     **** 
  85:Src/tim.c     ****   if(tim_baseHandle->Instance==TIM1)
 161              		.loc 1 85 3 view .LVU38
 162              		.loc 1 85 20 is_stmt 0 view .LVU39
 163 0000 0268     		ldr	r2, [r0]
 164              		.loc 1 85 5 view .LVU40
 165 0002 1A4B     		ldr	r3, .L18
 166 0004 9A42     		cmp	r2, r3
 167 0006 00D0     		beq	.L17
 168 0008 7047     		bx	lr
 169              	.L17:
  83:Src/tim.c     **** 
 170              		.loc 1 83 1 view .LVU41
 171 000a 00B5     		push	{lr}
 172              	.LCFI4:
 173              		.cfi_def_cfa_offset 4
 174              		.cfi_offset 14, -4
 175 000c 83B0     		sub	sp, sp, #12
 176              	.LCFI5:
 177              		.cfi_def_cfa_offset 16
  86:Src/tim.c     ****   {
  87:Src/tim.c     ****   /* USER CODE BEGIN TIM1_MspInit 0 */
  88:Src/tim.c     **** 
  89:Src/tim.c     ****   /* USER CODE END TIM1_MspInit 0 */
  90:Src/tim.c     ****     /* TIM1 clock enable */
  91:Src/tim.c     ****     __HAL_RCC_TIM1_CLK_ENABLE();
 178              		.loc 1 91 5 is_stmt 1 view .LVU42
 179              	.LBB2:
 180              		.loc 1 91 5 view .LVU43
 181              		.loc 1 91 5 view .LVU44
 182 000e 03F56443 		add	r3, r3, #58368
 183 0012 9A69     		ldr	r2, [r3, #24]
 184 0014 42F40062 		orr	r2, r2, #2048
 185 0018 9A61     		str	r2, [r3, #24]
 186              		.loc 1 91 5 view .LVU45
 187 001a 9B69     		ldr	r3, [r3, #24]
 188 001c 03F40063 		and	r3, r3, #2048
 189 0020 0193     		str	r3, [sp, #4]
 190              		.loc 1 91 5 view .LVU46
 191 0022 019B     		ldr	r3, [sp, #4]
ARM GAS  C:\Users\Marcin\AppData\Local\Temp\ccPQLjhi.s 			page 6


 192              	.LBE2:
 193              		.loc 1 91 5 view .LVU47
  92:Src/tim.c     **** 
  93:Src/tim.c     ****     /* TIM1 interrupt Init */
  94:Src/tim.c     ****     HAL_NVIC_SetPriority(TIM1_BRK_IRQn, 0, 0);
 194              		.loc 1 94 5 view .LVU48
 195 0024 0022     		movs	r2, #0
 196 0026 1146     		mov	r1, r2
 197 0028 1820     		movs	r0, #24
 198              	.LVL7:
 199              		.loc 1 94 5 is_stmt 0 view .LVU49
 200 002a FFF7FEFF 		bl	HAL_NVIC_SetPriority
 201              	.LVL8:
  95:Src/tim.c     ****     HAL_NVIC_EnableIRQ(TIM1_BRK_IRQn);
 202              		.loc 1 95 5 is_stmt 1 view .LVU50
 203 002e 1820     		movs	r0, #24
 204 0030 FFF7FEFF 		bl	HAL_NVIC_EnableIRQ
 205              	.LVL9:
  96:Src/tim.c     ****     HAL_NVIC_SetPriority(TIM1_UP_IRQn, 0, 0);
 206              		.loc 1 96 5 view .LVU51
 207 0034 0022     		movs	r2, #0
 208 0036 1146     		mov	r1, r2
 209 0038 1920     		movs	r0, #25
 210 003a FFF7FEFF 		bl	HAL_NVIC_SetPriority
 211              	.LVL10:
  97:Src/tim.c     ****     HAL_NVIC_EnableIRQ(TIM1_UP_IRQn);
 212              		.loc 1 97 5 view .LVU52
 213 003e 1920     		movs	r0, #25
 214 0040 FFF7FEFF 		bl	HAL_NVIC_EnableIRQ
 215              	.LVL11:
  98:Src/tim.c     ****     HAL_NVIC_SetPriority(TIM1_TRG_COM_IRQn, 0, 0);
 216              		.loc 1 98 5 view .LVU53
 217 0044 0022     		movs	r2, #0
 218 0046 1146     		mov	r1, r2
 219 0048 1A20     		movs	r0, #26
 220 004a FFF7FEFF 		bl	HAL_NVIC_SetPriority
 221              	.LVL12:
  99:Src/tim.c     ****     HAL_NVIC_EnableIRQ(TIM1_TRG_COM_IRQn);
 222              		.loc 1 99 5 view .LVU54
 223 004e 1A20     		movs	r0, #26
 224 0050 FFF7FEFF 		bl	HAL_NVIC_EnableIRQ
 225              	.LVL13:
 100:Src/tim.c     ****     HAL_NVIC_SetPriority(TIM1_CC_IRQn, 0, 0);
 226              		.loc 1 100 5 view .LVU55
 227 0054 0022     		movs	r2, #0
 228 0056 1146     		mov	r1, r2
 229 0058 1B20     		movs	r0, #27
 230 005a FFF7FEFF 		bl	HAL_NVIC_SetPriority
 231              	.LVL14:
 101:Src/tim.c     ****     HAL_NVIC_EnableIRQ(TIM1_CC_IRQn);
 232              		.loc 1 101 5 view .LVU56
 233 005e 1B20     		movs	r0, #27
 234 0060 FFF7FEFF 		bl	HAL_NVIC_EnableIRQ
 235              	.LVL15:
 102:Src/tim.c     ****   /* USER CODE BEGIN TIM1_MspInit 1 */
 103:Src/tim.c     **** 
 104:Src/tim.c     ****   /* USER CODE END TIM1_MspInit 1 */
ARM GAS  C:\Users\Marcin\AppData\Local\Temp\ccPQLjhi.s 			page 7


 105:Src/tim.c     ****   }
 106:Src/tim.c     **** }
 236              		.loc 1 106 1 is_stmt 0 view .LVU57
 237 0064 03B0     		add	sp, sp, #12
 238              	.LCFI6:
 239              		.cfi_def_cfa_offset 4
 240              		@ sp needed
 241 0066 5DF804FB 		ldr	pc, [sp], #4
 242              	.L19:
 243 006a 00BF     		.align	2
 244              	.L18:
 245 006c 002C0140 		.word	1073818624
 246              		.cfi_endproc
 247              	.LFE67:
 249              		.section	.text.HAL_TIM_Base_MspDeInit,"ax",%progbits
 250              		.align	1
 251              		.global	HAL_TIM_Base_MspDeInit
 252              		.syntax unified
 253              		.thumb
 254              		.thumb_func
 255              		.fpu softvfp
 257              	HAL_TIM_Base_MspDeInit:
 258              	.LVL16:
 259              	.LFB68:
 107:Src/tim.c     **** 
 108:Src/tim.c     **** void HAL_TIM_Base_MspDeInit(TIM_HandleTypeDef* tim_baseHandle)
 109:Src/tim.c     **** {
 260              		.loc 1 109 1 is_stmt 1 view -0
 261              		.cfi_startproc
 262              		@ args = 0, pretend = 0, frame = 0
 263              		@ frame_needed = 0, uses_anonymous_args = 0
 264              		.loc 1 109 1 is_stmt 0 view .LVU59
 265 0000 08B5     		push	{r3, lr}
 266              	.LCFI7:
 267              		.cfi_def_cfa_offset 8
 268              		.cfi_offset 3, -8
 269              		.cfi_offset 14, -4
 110:Src/tim.c     **** 
 111:Src/tim.c     ****   if(tim_baseHandle->Instance==TIM1)
 270              		.loc 1 111 3 is_stmt 1 view .LVU60
 271              		.loc 1 111 20 is_stmt 0 view .LVU61
 272 0002 0268     		ldr	r2, [r0]
 273              		.loc 1 111 5 view .LVU62
 274 0004 0A4B     		ldr	r3, .L24
 275 0006 9A42     		cmp	r2, r3
 276 0008 00D0     		beq	.L23
 277              	.LVL17:
 278              	.L20:
 112:Src/tim.c     ****   {
 113:Src/tim.c     ****   /* USER CODE BEGIN TIM1_MspDeInit 0 */
 114:Src/tim.c     **** 
 115:Src/tim.c     ****   /* USER CODE END TIM1_MspDeInit 0 */
 116:Src/tim.c     ****     /* Peripheral clock disable */
 117:Src/tim.c     ****     __HAL_RCC_TIM1_CLK_DISABLE();
 118:Src/tim.c     **** 
 119:Src/tim.c     ****     /* TIM1 interrupt Deinit */
 120:Src/tim.c     ****     HAL_NVIC_DisableIRQ(TIM1_BRK_IRQn);
ARM GAS  C:\Users\Marcin\AppData\Local\Temp\ccPQLjhi.s 			page 8


 121:Src/tim.c     ****     HAL_NVIC_DisableIRQ(TIM1_UP_IRQn);
 122:Src/tim.c     ****     HAL_NVIC_DisableIRQ(TIM1_TRG_COM_IRQn);
 123:Src/tim.c     ****     HAL_NVIC_DisableIRQ(TIM1_CC_IRQn);
 124:Src/tim.c     ****   /* USER CODE BEGIN TIM1_MspDeInit 1 */
 125:Src/tim.c     **** 
 126:Src/tim.c     ****   /* USER CODE END TIM1_MspDeInit 1 */
 127:Src/tim.c     ****   }
 128:Src/tim.c     **** } 
 279              		.loc 1 128 1 view .LVU63
 280 000a 08BD     		pop	{r3, pc}
 281              	.LVL18:
 282              	.L23:
 117:Src/tim.c     **** 
 283              		.loc 1 117 5 is_stmt 1 view .LVU64
 284 000c 094A     		ldr	r2, .L24+4
 285 000e 9369     		ldr	r3, [r2, #24]
 286 0010 23F40063 		bic	r3, r3, #2048
 287 0014 9361     		str	r3, [r2, #24]
 120:Src/tim.c     ****     HAL_NVIC_DisableIRQ(TIM1_UP_IRQn);
 288              		.loc 1 120 5 view .LVU65
 289 0016 1820     		movs	r0, #24
 290              	.LVL19:
 120:Src/tim.c     ****     HAL_NVIC_DisableIRQ(TIM1_UP_IRQn);
 291              		.loc 1 120 5 is_stmt 0 view .LVU66
 292 0018 FFF7FEFF 		bl	HAL_NVIC_DisableIRQ
 293              	.LVL20:
 121:Src/tim.c     ****     HAL_NVIC_DisableIRQ(TIM1_TRG_COM_IRQn);
 294              		.loc 1 121 5 is_stmt 1 view .LVU67
 295 001c 1920     		movs	r0, #25
 296 001e FFF7FEFF 		bl	HAL_NVIC_DisableIRQ
 297              	.LVL21:
 122:Src/tim.c     ****     HAL_NVIC_DisableIRQ(TIM1_CC_IRQn);
 298              		.loc 1 122 5 view .LVU68
 299 0022 1A20     		movs	r0, #26
 300 0024 FFF7FEFF 		bl	HAL_NVIC_DisableIRQ
 301              	.LVL22:
 123:Src/tim.c     ****   /* USER CODE BEGIN TIM1_MspDeInit 1 */
 302              		.loc 1 123 5 view .LVU69
 303 0028 1B20     		movs	r0, #27
 304 002a FFF7FEFF 		bl	HAL_NVIC_DisableIRQ
 305              	.LVL23:
 306              		.loc 1 128 1 is_stmt 0 view .LVU70
 307 002e ECE7     		b	.L20
 308              	.L25:
 309              		.align	2
 310              	.L24:
 311 0030 002C0140 		.word	1073818624
 312 0034 00100240 		.word	1073876992
 313              		.cfi_endproc
 314              	.LFE68:
 316              		.comm	htim1,64,4
 317              		.text
 318              	.Letext0:
 319              		.file 2 "g:\\program files (x86)\\gnu tools arm embedded\\9 2019-q4-major\\arm-none-eabi\\include\
 320              		.file 3 "g:\\program files (x86)\\gnu tools arm embedded\\9 2019-q4-major\\arm-none-eabi\\include\
 321              		.file 4 "Drivers/CMSIS/Include/core_cm3.h"
 322              		.file 5 "Drivers/CMSIS/Device/ST/STM32F1xx/Include/system_stm32f1xx.h"
ARM GAS  C:\Users\Marcin\AppData\Local\Temp\ccPQLjhi.s 			page 9


 323              		.file 6 "Drivers/CMSIS/Device/ST/STM32F1xx/Include/stm32f103xb.h"
 324              		.file 7 "g:\\program files (x86)\\gnu tools arm embedded\\9 2019-q4-major\\arm-none-eabi\\include\
 325              		.file 8 "g:\\program files (x86)\\gnu tools arm embedded\\9 2019-q4-major\\arm-none-eabi\\include\
 326              		.file 9 "g:\\program files (x86)\\gnu tools arm embedded\\9 2019-q4-major\\lib\\gcc\\arm-none-eabi
 327              		.file 10 "g:\\program files (x86)\\gnu tools arm embedded\\9 2019-q4-major\\arm-none-eabi\\include
 328              		.file 11 "Drivers/STM32F1xx_HAL_Driver/Inc/stm32f1xx_hal_def.h"
 329              		.file 12 "Drivers/STM32F1xx_HAL_Driver/Inc/stm32f1xx_hal_dma.h"
 330              		.file 13 "Drivers/STM32F1xx_HAL_Driver/Inc/stm32f1xx_hal_tim.h"
 331              		.file 14 "Drivers/STM32F1xx_HAL_Driver/Inc/stm32f1xx_hal_tim_ex.h"
 332              		.file 15 "Inc/tim.h"
 333              		.file 16 "Drivers/STM32F1xx_HAL_Driver/Inc/stm32f1xx_hal_cortex.h"
ARM GAS  C:\Users\Marcin\AppData\Local\Temp\ccPQLjhi.s 			page 10

